(dp0
S'genjet_sd_m'
p1
ccopy_reg
_reconstructor
p2
(csklearn.preprocessing.data
StandardScaler
p3
c__builtin__
object
p4
Ntp5
Rp6
(dp7
S'mean_'
p8
cnumpy.core.multiarray
_reconstruct
p9
(cnumpy
ndarray
p10
(I0
tp11
S'b'
p12
tp13
Rp14
(I1
(I1
tp15
cnumpy
dtype
p16
(S'f8'
p17
I0
I1
tp18
Rp19
(I3
S'<'
p20
NNNI-1
I-1
I0
tp21
bI00
S'p\xfe\x04\x9a@\x97g@'
p22
tp23
bsS'with_mean'
p24
I01
sS'var_'
p25
g9
(g10
(I0
tp26
g12
tp27
Rp28
(I1
(I1
tp29
g19
I00
S'\x00\x00\x00 \xfdd\xf1@'
p30
tp31
bsS'scale_'
p32
g9
(g10
(I0
tp33
g12
tp34
Rp35
(I1
(I1
tp36
g19
I00
S'A\x10\xd6\x16\xc4\xaep@'
p37
tp38
bsS'with_std'
p39
I01
sS'n_samples_seen_'
p40
I1042167
sS'_sklearn_version'
p41
S'0.19.0'
p42
sS'copy'
p43
I01
sbsS'constituents_phi'
p44
g2
(g3
g4
Ntp45
Rp46
(dp47
g8
g9
(g10
(I0
tp48
g12
tp49
Rp50
(I1
(I1
tp51
g19
I00
S'j\x13\xa0\x1d\x0f\xd1R\xbf'
p52
tp53
bsg24
I01
sg25
g9
(g10
(I0
tp54
g12
tp55
Rp56
(I1
(I1
tp57
g19
I00
S'\x80\x83C\x1e\xd4N\n@'
p58
tp59
bsg32
g9
(g10
(I0
tp60
g12
tp61
Rp62
(I1
(I1
tp63
g19
I00
S'q\xb2\x02<\xc4\x03\xfd?'
p64
tp65
bsg39
I01
sg40
I60288395
sg41
g42
sg43
I01
sbsS'constituents_Eem'
p66
g2
(g3
g4
Ntp67
Rp68
(dp69
g8
g9
(g10
(I0
tp70
g12
tp71
Rp72
(I1
(I1
tp73
g19
I00
S's\xd3\x86\xf0\x90rg@'
p74
tp75
bsg24
I01
sg25
g9
(g10
(I0
tp76
g12
tp77
Rp78
(I1
(I1
tp79
g19
I00
S'\x9bwP\xa7\xddY\x1aA'
p80
tp81
bsg32
g9
(g10
(I0
tp82
g12
tp83
Rp84
(I1
(I1
tp85
g19
I00
S'B\x8fY\xad\x86\x88\x84@'
p86
tp87
bsg39
I01
sg40
I13347520
sg41
g42
sg43
I01
sbsS'recojet_sd_eta'
p88
g2
(g3
g4
Ntp89
Rp90
(dp91
g8
g9
(g10
(I0
tp92
g12
tp93
Rp94
(I1
(I1
tp95
g19
I00
S'\x05\x1aO\xc4\x87\x8e.\xbf'
p96
tp97
bsg24
I01
sg25
g9
(g10
(I0
tp98
g12
tp99
Rp100
(I1
(I1
tp101
g19
I00
S'\x00\x00\x00\x00\xcdG\xed?'
p102
tp103
bsg32
g9
(g10
(I0
tp104
g12
tp105
Rp106
(I1
(I1
tp107
g19
I00
S'\x7f\xcbB+,\x9c\xee?'
p108
tp109
bsg39
I01
sg40
I1042167
sg41
g42
sg43
I01
sbsS'recojet_eta'
p110
g2
(g3
g4
Ntp111
Rp112
(dp113
g8
g9
(g10
(I0
tp114
g12
tp115
Rp116
(I1
(I1
tp117
g19
I00
S'\x06G\xf0\xa9\xb62/\xbf'
p118
tp119
bsg24
I01
sg25
g9
(g10
(I0
tp120
g12
tp121
Rp122
(I1
(I1
tp123
g19
I00
S'\x00\x00\x00\xa0\xdaI\xed?'
p124
tp125
bsg32
g9
(g10
(I0
tp126
g12
tp127
Rp128
(I1
(I1
tp129
g19
I00
S'\xd7d\x84\xe5>\x9d\xee?'
p130
tp131
bsg39
I01
sg40
I1042167
sg41
g42
sg43
I01
sbsS'constituents_dxy'
p132
g2
(g3
g4
Ntp133
Rp134
(dp135
g8
g9
(g10
(I0
tp136
g12
tp137
Rp138
(I1
(I1
tp139
g19
I00
S'\xd6\x03\xba\x8a\xb0\xe9t\xc0'
p140
tp141
bsg24
I01
sg25
g9
(g10
(I0
tp142
g12
tp143
Rp144
(I1
(I1
tp145
g19
I00
S'\x18\x82\x12h=#\x0bA'
p146
tp147
bsg32
g9
(g10
(I0
tp148
g12
tp149
Rp150
(I1
(I1
tp151
g19
I00
S'\xca-\x88\x81\xfdw}@'
p152
tp153
bsg39
I01
sg40
I60288395
sg41
g42
sg43
I01
sbsS'constituents_dz'
p154
g2
(g3
g4
Ntp155
Rp156
(dp157
g8
g9
(g10
(I0
tp158
g12
tp159
Rp160
(I1
(I1
tp161
g19
I00
S'\xc0\x7f\x03\xb4\xb6\xe9t\xc0'
p162
tp163
bsg24
I01
sg25
g9
(g10
(I0
tp164
g12
tp165
Rp166
(I1
(I1
tp167
g19
I00
S'4\x01\x14]5#\x0bA'
p168
tp169
bsg32
g9
(g10
(I0
tp170
g12
tp171
Rp172
(I1
(I1
tp173
g19
I00
S'-7\x9a#\xf9w}@'
p174
tp175
bsg39
I01
sg40
I60288395
sg41
g42
sg43
I01
sbsS'recojet_sd_phi'
p176
g2
(g3
g4
Ntp177
Rp178
(dp179
g8
g9
(g10
(I0
tp180
g12
tp181
Rp182
(I1
(I1
tp183
g19
I00
S'H\x19\x8ff\x1a4F\xbf'
p184
tp185
bsg24
I01
sg25
g9
(g10
(I0
tp186
g12
tp187
Rp188
(I1
(I1
tp189
g19
I00
S'\x00\x00\x00`\xc0N\n@'
p190
tp191
bsg32
g9
(g10
(I0
tp192
g12
tp193
Rp194
(I1
(I1
tp195
g19
I00
S'\x89x\xdbX\xb9\x03\xfd?'
p196
tp197
bsg39
I01
sg40
I1042167
sg41
g42
sg43
I01
sbsS'recojet_phi'
p198
g2
(g3
g4
Ntp199
Rp200
(dp201
g8
g9
(g10
(I0
tp202
g12
tp203
Rp204
(I1
(I1
tp205
g19
I00
S'\x16\xca\x84\xbd\xa4\xdcD\xbf'
p206
tp207
bsg24
I01
sg25
g9
(g10
(I0
tp208
g12
tp209
Rp210
(I1
(I1
tp211
g19
I00
S'\x00\x00\x00\x80\xd9N\n@'
p212
tp213
bsg32
g9
(g10
(I0
tp214
g12
tp215
Rp216
(I1
(I1
tp217
g19
I00
S'\xa6=\xc13\xc7\x03\xfd?'
p218
tp219
bsg39
I01
sg40
I1042167
sg41
g42
sg43
I01
sbsS'n_constituents'
p220
g2
(g3
g4
Ntp221
Rp222
(dp223
g8
g9
(g10
(I0
tp224
g12
tp225
Rp226
(I1
(I1
tp227
g19
I00
S'\xc5|\xadm\xae\xecL@'
p228
tp229
bsg24
I01
sg25
g9
(g10
(I0
tp230
g12
tp231
Rp232
(I1
(I1
tp233
g19
I00
S'G\xd1T\x9a\x86\x97\x8c@'
p234
tp235
bsg32
g9
(g10
(I0
tp236
g12
tp237
Rp238
(I1
(I1
tp239
g19
I00
S'\x98;D\x15|?>@'
p240
tp241
bsg39
I01
sg40
I1042167
sg41
g42
sg43
I01
sbsS'constituents_eta'
p242
g2
(g3
g4
Ntp243
Rp244
(dp245
g8
g9
(g10
(I0
tp246
g12
tp247
Rp248
(I1
(I1
tp249
g19
I00
S'\x18y\xcd\x8d\x12}`\xbf'
p250
tp251
bsg24
I01
sg25
g9
(g10
(I0
tp252
g12
tp253
Rp254
(I1
(I1
tp255
g19
I00
S'\xc4\x03bQ/\x87\xe9?'
p256
tp257
bsg32
g9
(g10
(I0
tp258
g12
tp259
Rp260
(I1
(I1
tp261
g19
I00
S'\x94\xed\x03\x8e\xd8\x94\xec?'
p262
tp263
bsg39
I01
sg40
I60288395
sg41
g42
sg43
I01
sbsS'recojet_pt'
p264
g2
(g3
g4
Ntp265
Rp266
(dp267
g8
g9
(g10
(I0
tp268
g12
tp269
Rp270
(I1
(I1
tp271
g19
I00
S'~\xaf0\xcd\xaa\xe7\xb5@'
p272
tp273
bsg24
I01
sg25
g9
(g10
(I0
tp274
g12
tp275
Rp276
(I1
(I1
tp277
g19
I00
S'\x00\x00\x00\x00%\x81;A'
p278
tp279
bsg32
g9
(g10
(I0
tp280
g12
tp281
Rp282
(I1
(I1
tp283
g19
I00
S'\x80\x0f\x89yV\xfa\x94@'
p284
tp285
bsg39
I01
sg40
I1042167
sg41
g42
sg43
I01
sbsS'constituents_charge'
p286
g2
(g3
g4
Ntp287
Rp288
(dp289
g8
g9
(g10
(I0
tp290
g12
tp291
Rp292
(I1
(I1
tp293
g19
I00
S'\x89\t\xbb\xa4\x86\xa9d?'
p294
tp295
bsg24
I01
sg25
g9
(g10
(I0
tp296
g12
tp297
Rp298
(I1
(I1
tp299
g19
I00
S'\xb7\x99\x95\xa8\xf2\xff\xef?'
p300
tp301
bsg32
g9
(g10
(I0
tp302
g12
tp303
Rp304
(I1
(I1
tp305
g19
I00
S'\xdd\x1aJT\xf9\xff\xef?'
p306
tp307
bsg39
I01
sg40
I40095272
sg41
g42
sg43
I01
sbsS'jets'
p308
g2
(g3
g4
Ntp309
Rp310
(dp311
g8
g9
(g10
(I0
tp312
g12
tp313
Rp314
(I1
(I9
tp315
g19
I00
S'\xb4\x8a\x13\xf9\xaa\xe7\xb5@\xce\xb6\xe0B\xb92/\xbf\xa5\xa7b\xe3\xa4\xdcD\xbf\x14Q3\x86\x02du@\xf7\xe6\xe0\x14E\xf1\xb4@}5<\xc3\x86\x8e.\xbf/z\xff\x04\x1a4F\xbf;\x84\x9fx\xa3\xa6n@\xc5|\xadm\xae\xecL@'
p316
tp317
bsg24
I01
sg25
g9
(g10
(I0
tp318
g12
tp319
Rp320
(I1
(I9
tp321
g19
I00
S'JI\xce\xea$\x81;A1\xf3%\xee\xdaI\xed?_\xa3%\xf8\xd9N\n@\x81xN\xb3\xd3L\xe9@\x8eP\x82F\xd5>;A\xf35\xd1\xe6\xccG\xed?\xc9\xe8\x1cz\xc0N\n@p\x0f\xfe\xbd\xd0\t\xed@G\xd1T\x9a\x86\x97\x8c@'
p322
tp323
bsg32
g9
(g10
(I0
tp324
g12
tp325
Rp326
(I1
(I9
tp327
g19
I00
S"T\xf1sqV\xfa\x94@\xa8'\\\x0e?\x9d\xee?\xe5V\x02v\xc7\x03\xfd?\xe3\xea\xbc\x8a\x1atl@fWBf\xfd\xe0\x94@\x02\x08\x19\x1e,\x9c\xee?\xf4\xd8Ag\xb9\x03\xfd?F\xc4\xc4\x8b\xb4{n@\x98;D\x15|?>@"
p328
tp329
bsg39
I01
sg40
I1042167
sg41
g42
sg43
I01
sbsS'constituents_Ehad'
p330
g2
(g3
g4
Ntp331
Rp332
(dp333
g8
g9
(g10
(I0
tp334
g12
tp335
Rp336
(I1
(I1
tp337
g19
I00
S'\xf7\xff\xe1\x01\xc81a@'
p338
tp339
bsg24
I01
sg25
g9
(g10
(I0
tp340
g12
tp341
Rp342
(I1
(I1
tp343
g19
I00
S'H\\_\xb7\xe0\xec\x11A'
p344
tp345
bsg32
g9
(g10
(I0
tp346
g12
tp347
Rp348
(I1
(I1
tp349
g19
I00
S':\xa9\x0b\xbep\xef\x80@'
p350
tp351
bsg39
I01
sg40
I46867446
sg41
g42
sg43
I01
sbsS'recojet_m'
p352
g2
(g3
g4
Ntp353
Rp354
(dp355
g8
g9
(g10
(I0
tp356
g12
tp357
Rp358
(I1
(I1
tp359
g19
I00
S'\x7f\x8d<\x8c\x02du@'
p360
tp361
bsg24
I01
sg25
g9
(g10
(I0
tp362
g12
tp363
Rp364
(I1
(I1
tp365
g19
I00
S'\x00\x00\x00\xc0\xd3L\xe9@'
p366
tp367
bsg32
g9
(g10
(I0
tp368
g12
tp369
Rp370
(I1
(I1
tp371
g19
I00
S'\xaf1\xe0\x91\x1atl@'
p372
tp373
bsg39
I01
sg40
I1042167
sg41
g42
sg43
I01
sbsS'recojet_sd_m'
p374
g2
(g3
g4
Ntp375
Rp376
(dp377
g8
g9
(g10
(I0
tp378
g12
tp379
Rp380
(I1
(I1
tp381
g19
I00
S'\xe9/\xfd\\\xa3\xa6n@'
p382
tp383
bsg24
I01
sg25
g9
(g10
(I0
tp384
g12
tp385
Rp386
(I1
(I1
tp387
g19
I00
S'\x00\x00\x00@\xd0\t\xed@'
p388
tp389
bsg32
g9
(g10
(I0
tp390
g12
tp391
Rp392
(I1
(I1
tp393
g19
I00
S'vJ\xa3I\xb4{n@'
p394
tp395
bsg39
I01
sg40
I1042167
sg41
g42
sg43
I01
sbsS'constituents_pt'
p396
g2
(g3
g4
Ntp397
Rp398
(dp399
g8
g9
(g10
(I0
tp400
g12
tp401
Rp402
(I1
(I1
tp403
g19
I00
S't\xf6P\x82\xf7CX@'
p404
tp405
bsg24
I01
sg25
g9
(g10
(I0
tp406
g12
tp407
Rp408
(I1
(I1
tp409
g19
I00
S'x\x01 \xbf\x94]\xfa@'
p410
tp411
bsg32
g9
(g10
(I0
tp412
g12
tp413
Rp414
(I1
(I1
tp415
g19
I00
S'6\xe6\xaf.\xf9\x89t@'
p416
tp417
bsg39
I01
sg40
I60288395
sg41
g42
sg43
I01
sbsS'recojet_sd_pt'
p418
g2
(g3
g4
Ntp419
Rp420
(dp421
g8
g9
(g10
(I0
tp422
g12
tp423
Rp424
(I1
(I1
tp425
g19
I00
S'$\xbe\xbe#E\xf1\xb4@'
p426
tp427
bsg24
I01
sg25
g9
(g10
(I0
tp428
g12
tp429
Rp430
(I1
(I1
tp431
g19
I00
S'\x00\x00\x00\x00\xd5>;A'
p432
tp433
bsg32
g9
(g10
(I0
tp434
g12
tp435
Rp436
(I1
(I1
tp437
g19
I00
S'\xe6">K\xfd\xe0\x94@'
p438
tp439
bsg39
I01
sg40
I1042167
sg41
g42
sg43
I01
sbs.